; Function Attrs: mustprogress nofree norecurse nosync nounwind willreturn memory(read, inaccessiblemem: none) uwtable
define hidden noundef zeroext i1 @_ZNK5Arena8containsEPKv(ptr nocapture noundef nonnull readonly align 8 dereferenceable(48) %0, ptr noundef readnone %1) local_unnamed_addr #5 align 2 {
  %3 = getelementptr inbounds i8, ptr %0, i64 24
  %4 = load ptr, ptr %3, align 8
  %5 = icmp eq ptr %4, null
  br i1 %5, label %.loopexit, label %6

6:                                                ; preds = %2
  %7 = getelementptr inbounds i8, ptr %4, i64 16
  %.not = icmp ule ptr %7, %1
  %8 = getelementptr inbounds i8, ptr %0, i64 32
  %9 = load ptr, ptr %8, align 8
  %10 = icmp ugt ptr %9, %1
  %or.cond = select i1 %.not, i1 %10, i1 false
  br i1 %or.cond, label %.loopexit, label %11

11:                                               ; preds = %6
  %12 = getelementptr inbounds i8, ptr %0, i64 16
  %.018 = load ptr, ptr %12, align 8
  %.not1419 = icmp eq ptr %.018, null
  br i1 %.not1419, label %.loopexit, label %.lr.ph

.lr.ph:                                           ; preds = %11, %21
  %.020 = phi ptr [ %.0, %21 ], [ %.018, %11 ]
  %13 = icmp eq ptr %.020, %4
  br i1 %13, label %21, label %14

14:                                               ; preds = %.lr.ph
  %15 = getelementptr inbounds i8, ptr %.020, i64 16
  %.not15 = icmp ugt ptr %15, %1
  br i1 %.not15, label %21, label %16

16:                                               ; preds = %14
  %17 = getelementptr inbounds i8, ptr %.020, i64 8
  %18 = load i64, ptr %17, align 8
  %19 = getelementptr inbounds i8, ptr %15, i64 %18
  %20 = icmp ugt ptr %19, %1
  br i1 %20, label %.loopexit, label %21

21:                                               ; preds = %14, %16, %.lr.ph
  %.0 = load ptr, ptr %.020, align 8
  %.not14 = icmp eq ptr %.0, null
  br i1 %.not14, label %.loopexit, label %.lr.ph, !llvm.loop !11

.loopexit:                                        ; preds = %16, %21, %11, %6, %2
  %.011 = phi i1 [ false, %2 ], [ true, %6 ], [ false, %11 ], [ true, %16 ], [ false, %21 ]
  ret i1 %.011
}